target datalayout = "e-m:e-p270:32:32-p271:32:32-p272:64:64-i64:64-i128:128-f80:128-n8:16:32:64-S128"
target triple = "x86_64-pc-linux-gnu"

%struct.aiMaterialProperty = type { %struct.aiString, i32, i32, i32, i32, ptr }
%struct.aiString = type { i32, [1024 x i8] }

@.str = private unnamed_addr constant [18 x i8] c"Material property\00", align 1
@.str.1 = private unnamed_addr constant [55 x i8] c" is a string; failed to parse a float array out of it.\00", align 1

; Function Attrs: inlinehint mustprogress nounwind uwtable
define linkonce_odr hidden noundef zeroext i1 @_ZN6Assimp7IsSpaceIcEEbT_(i8 noundef signext %0) #4 comdat {
  %2 = alloca i8, align 1
  store i8 %0, ptr %2, align 1
  %3 = load i8, ptr %2, align 1
  %4 = sext i8 %3 to i32
  %5 = icmp eq i32 %4, 32
  br i1 %5, label %10, label %6

6:                                                ; preds = %1
  %7 = load i8, ptr %2, align 1
  %8 = sext i8 %7 to i32
  %9 = icmp eq i32 %8, 9
  br label %10

10:                                               ; preds = %6, %1
  %11 = phi i1 [ true, %1 ], [ %9, %6 ]
  ret i1 %11
}

; Function Attrs: inlinehint mustprogress nounwind uwtable
define linkonce_odr noundef nonnull align 4 dereferenceable(4) ptr @_ZSt3minIjERKT_S2_S2_(ptr noundef nonnull align 4 dereferenceable(4) %0, ptr noundef nonnull align 4 dereferenceable(4) %1) #4 comdat {
  %3 = alloca ptr, align 8
  %4 = alloca ptr, align 8
  %5 = alloca ptr, align 8
  store ptr %0, ptr %4, align 8
  store ptr %1, ptr %5, align 8
  %6 = load ptr, ptr %5, align 8
  %7 = load i32, ptr %6, align 4
  %8 = load ptr, ptr %4, align 8
  %9 = load i32, ptr %8, align 4
  %10 = icmp ult i32 %7, %9
  br i1 %10, label %11, label %13

11:                                               ; preds = %2
  %12 = load ptr, ptr %5, align 8
  store ptr %12, ptr %3, align 8
  br label %15

13:                                               ; preds = %2
  %14 = load ptr, ptr %4, align 8
  store ptr %14, ptr %3, align 8
  br label %15

15:                                               ; preds = %13, %11
  %16 = load ptr, ptr %3, align 8
  ret ptr %16
}

; Function Attrs: mustprogress uwtable
define hidden noundef i32 @_Z24aiGetMaterialDoubleArrayPK10aiMaterialPKcjjPdPj(ptr noundef %0, ptr noundef %1, i32 noundef %2, i32 noundef %3, ptr noundef %4, ptr noundef %5) #3 {
  %7 = alloca i32, align 4
  %8 = alloca ptr, align 8
  %9 = alloca ptr, align 8
  %10 = alloca i32, align 4
  %11 = alloca i32, align 4
  %12 = alloca ptr, align 8
  %13 = alloca ptr, align 8
  %14 = alloca ptr, align 8
  %15 = alloca i32, align 4
  %16 = alloca i32, align 4
  %17 = alloca i32, align 4
  %18 = alloca i32, align 4
  %19 = alloca i32, align 4
  %20 = alloca ptr, align 8
  %21 = alloca i32, align 4
  store ptr %0, ptr %8, align 8
  store ptr %1, ptr %9, align 8
  store i32 %2, ptr %10, align 4
  store i32 %3, ptr %11, align 4
  store ptr %4, ptr %12, align 8
  store ptr %5, ptr %13, align 8
  call void @llvm.lifetime.start.p0(i64 8, ptr %14) #17
  %22 = load ptr, ptr %8, align 8
  %23 = load ptr, ptr %9, align 8
  %24 = load i32, ptr %10, align 4
  %25 = load i32, ptr %11, align 4
  %26 = call i32 @aiGetMaterialProperty(ptr noundef %22, ptr noundef %23, i32 noundef %24, i32 noundef %25, ptr noundef %14)
  %27 = load ptr, ptr %14, align 8
  %28 = icmp eq ptr null, %27
  br i1 %28, label %29, label %30

29:                                               ; preds = %6
  store i32 -1, ptr %7, align 4
  store i32 1, ptr %15, align 4
  br label %227

30:                                               ; preds = %6
  call void @llvm.lifetime.start.p0(i64 4, ptr %16) #17
  store i32 0, ptr %16, align 4
  %31 = load ptr, ptr %14, align 8
  %32 = getelementptr inbounds nuw %struct.aiMaterialProperty, ptr %31, i32 0, i32 4
  %33 = load i32, ptr %32, align 8
  %34 = icmp eq i32 1, %33
  br i1 %34, label %40, label %35

35:                                               ; preds = %30
  %36 = load ptr, ptr %14, align 8
  %37 = getelementptr inbounds nuw %struct.aiMaterialProperty, ptr %36, i32 0, i32 4
  %38 = load i32, ptr %37, align 8
  %39 = icmp eq i32 5, %38
  br i1 %39, label %40, label %82

40:                                               ; preds = %35, %30
  %41 = load ptr, ptr %14, align 8
  %42 = getelementptr inbounds nuw %struct.aiMaterialProperty, ptr %41, i32 0, i32 3
  %43 = load i32, ptr %42, align 4
  %44 = zext i32 %43 to i64
  %45 = udiv i64 %44, 4
  %46 = trunc i64 %45 to i32
  store i32 %46, ptr %16, align 4
  %47 = load ptr, ptr %13, align 8
  %48 = icmp ne ptr %47, null
  br i1 %48, label %49, label %53

49:                                               ; preds = %40
  %50 = load ptr, ptr %13, align 8
  %51 = call noundef nonnull align 4 dereferenceable(4) ptr @_ZSt3minIjERKT_S2_S2_(ptr noundef nonnull align 4 dereferenceable(4) %50, ptr noundef nonnull align 4 dereferenceable(4) %16)
  %52 = load i32, ptr %51, align 4
  store i32 %52, ptr %16, align 4
  br label %53

53:                                               ; preds = %49, %40
  call void @llvm.lifetime.start.p0(i64 4, ptr %17) #17
  store i32 0, ptr %17, align 4
  br label %54

54:                                               ; preds = %72, %53
  %55 = load i32, ptr %17, align 4
  %56 = load i32, ptr %16, align 4
  %57 = icmp ult i32 %55, %56
  br i1 %57, label %59, label %58

58:                                               ; preds = %54
  store i32 2, ptr %15, align 4
  call void @llvm.lifetime.end.p0(i64 4, ptr %17) #17
  br label %75

59:                                               ; preds = %54
  %60 = load ptr, ptr %14, align 8
  %61 = getelementptr inbounds nuw %struct.aiMaterialProperty, ptr %60, i32 0, i32 5
  %62 = load ptr, ptr %61, align 8
  %63 = load i32, ptr %17, align 4
  %64 = zext i32 %63 to i64
  %65 = getelementptr inbounds nuw float, ptr %62, i64 %64
  %66 = load float, ptr %65, align 4
  %67 = fpext float %66 to double
  %68 = load ptr, ptr %12, align 8
  %69 = load i32, ptr %17, align 4
  %70 = zext i32 %69 to i64
  %71 = getelementptr inbounds nuw double, ptr %68, i64 %70
  store double %67, ptr %71, align 8
  br label %72

72:                                               ; preds = %59
  %73 = load i32, ptr %17, align 4
  %74 = add i32 %73, 1
  store i32 %74, ptr %17, align 4
  br label %54, !llvm.loop !11

75:                                               ; preds = %58
  %76 = load ptr, ptr %13, align 8
  %77 = icmp ne ptr %76, null
  br i1 %77, label %78, label %81

78:                                               ; preds = %75
  %79 = load i32, ptr %16, align 4
  %80 = load ptr, ptr %13, align 8
  store i32 %79, ptr %80, align 4
  br label %81

81:                                               ; preds = %78, %75
  br label %225

82:                                               ; preds = %35
  %83 = load ptr, ptr %14, align 8
  %84 = getelementptr inbounds nuw %struct.aiMaterialProperty, ptr %83, i32 0, i32 4
  %85 = load i32, ptr %84, align 8
  %86 = icmp eq i32 2, %85
  br i1 %86, label %87, label %130

87:                                               ; preds = %82
  %88 = load ptr, ptr %14, align 8
  %89 = getelementptr inbounds nuw %struct.aiMaterialProperty, ptr %88, i32 0, i32 3
  %90 = load i32, ptr %89, align 4
  %91 = zext i32 %90 to i64
  %92 = udiv i64 %91, 8
  %93 = trunc i64 %92 to i32
  store i32 %93, ptr %16, align 4
  %94 = load ptr, ptr %13, align 8
  %95 = icmp ne ptr %94, null
  br i1 %95, label %96, label %100

96:                                               ; preds = %87
  %97 = load ptr, ptr %13, align 8
  %98 = call noundef nonnull align 4 dereferenceable(4) ptr @_ZSt3minIjERKT_S2_S2_(ptr noundef nonnull align 4 dereferenceable(4) %97, ptr noundef nonnull align 4 dereferenceable(4) %16)
  %99 = load i32, ptr %98, align 4
  store i32 %99, ptr %16, align 4
  br label %100

100:                                              ; preds = %96, %87
  call void @llvm.lifetime.start.p0(i64 4, ptr %18) #17
  store i32 0, ptr %18, align 4
  br label %101

101:                                              ; preds = %120, %100
  %102 = load i32, ptr %18, align 4
  %103 = load i32, ptr %16, align 4
  %104 = icmp ult i32 %102, %103
  br i1 %104, label %106, label %105

105:                                              ; preds = %101
  store i32 5, ptr %15, align 4
  call void @llvm.lifetime.end.p0(i64 4, ptr %18) #17
  br label %123

106:                                              ; preds = %101
  %107 = load ptr, ptr %14, align 8
  %108 = getelementptr inbounds nuw %struct.aiMaterialProperty, ptr %107, i32 0, i32 5
  %109 = load ptr, ptr %108, align 8
  %110 = load i32, ptr %18, align 4
  %111 = zext i32 %110 to i64
  %112 = getelementptr inbounds nuw double, ptr %109, i64 %111
  %113 = load double, ptr %112, align 8
  %114 = fptrunc double %113 to float
  %115 = fpext float %114 to double
  %116 = load ptr, ptr %12, align 8
  %117 = load i32, ptr %18, align 4
  %118 = zext i32 %117 to i64
  %119 = getelementptr inbounds nuw double, ptr %116, i64 %118
  store double %115, ptr %119, align 8
  br label %120

120:                                              ; preds = %106
  %121 = load i32, ptr %18, align 4
  %122 = add i32 %121, 1
  store i32 %122, ptr %18, align 4
  br label %101, !llvm.loop !12

123:                                              ; preds = %105
  %124 = load ptr, ptr %13, align 8
  %125 = icmp ne ptr %124, null
  br i1 %125, label %126, label %129

126:                                              ; preds = %123
  %127 = load i32, ptr %16, align 4
  %128 = load ptr, ptr %13, align 8
  store i32 %127, ptr %128, align 4
  br label %129

129:                                              ; preds = %126, %123
  br label %224

130:                                              ; preds = %82
  %131 = load ptr, ptr %14, align 8
  %132 = getelementptr inbounds nuw %struct.aiMaterialProperty, ptr %131, i32 0, i32 4
  %133 = load i32, ptr %132, align 8
  %134 = icmp eq i32 4, %133
  br i1 %134, label %135, label %178

135:                                              ; preds = %130
  %136 = load ptr, ptr %14, align 8
  %137 = getelementptr inbounds nuw %struct.aiMaterialProperty, ptr %136, i32 0, i32 3
  %138 = load i32, ptr %137, align 4
  %139 = zext i32 %138 to i64
  %140 = udiv i64 %139, 4
  %141 = trunc i64 %140 to i32
  store i32 %141, ptr %16, align 4
  %142 = load ptr, ptr %13, align 8
  %143 = icmp ne ptr %142, null
  br i1 %143, label %144, label %148

144:                                              ; preds = %135
  %145 = load ptr, ptr %13, align 8
  %146 = call noundef nonnull align 4 dereferenceable(4) ptr @_ZSt3minIjERKT_S2_S2_(ptr noundef nonnull align 4 dereferenceable(4) %145, ptr noundef nonnull align 4 dereferenceable(4) %16)
  %147 = load i32, ptr %146, align 4
  store i32 %147, ptr %16, align 4
  br label %148

148:                                              ; preds = %144, %135
  call void @llvm.lifetime.start.p0(i64 4, ptr %19) #17
  store i32 0, ptr %19, align 4
  br label %149

149:                                              ; preds = %168, %148
  %150 = load i32, ptr %19, align 4
  %151 = load i32, ptr %16, align 4
  %152 = icmp ult i32 %150, %151
  br i1 %152, label %154, label %153

153:                                              ; preds = %149
  store i32 8, ptr %15, align 4
  call void @llvm.lifetime.end.p0(i64 4, ptr %19) #17
  br label %171

154:                                              ; preds = %149
  %155 = load ptr, ptr %14, align 8
  %156 = getelementptr inbounds nuw %struct.aiMaterialProperty, ptr %155, i32 0, i32 5
  %157 = load ptr, ptr %156, align 8
  %158 = load i32, ptr %19, align 4
  %159 = zext i32 %158 to i64
  %160 = getelementptr inbounds nuw i32, ptr %157, i64 %159
  %161 = load i32, ptr %160, align 4
  %162 = sitofp i32 %161 to float
  %163 = fpext float %162 to double
  %164 = load ptr, ptr %12, align 8
  %165 = load i32, ptr %19, align 4
  %166 = zext i32 %165 to i64
  %167 = getelementptr inbounds nuw double, ptr %164, i64 %166
  store double %163, ptr %167, align 8
  br label %168

168:                                              ; preds = %154
  %169 = load i32, ptr %19, align 4
  %170 = add i32 %169, 1
  store i32 %170, ptr %19, align 4
  br label %149, !llvm.loop !13

171:                                              ; preds = %153
  %172 = load ptr, ptr %13, align 8
  %173 = icmp ne ptr %172, null
  br i1 %173, label %174, label %177

174:                                              ; preds = %171
  %175 = load i32, ptr %16, align 4
  %176 = load ptr, ptr %13, align 8
  store i32 %175, ptr %176, align 4
  br label %177

177:                                              ; preds = %174, %171
  br label %223

178:                                              ; preds = %130
  %179 = load ptr, ptr %13, align 8
  %180 = icmp ne ptr %179, null
  br i1 %180, label %181, label %184

181:                                              ; preds = %178
  %182 = load ptr, ptr %13, align 8
  %183 = load i32, ptr %182, align 4
  store i32 %183, ptr %16, align 4
  br label %184

184:                                              ; preds = %181, %178
  call void @llvm.lifetime.start.p0(i64 8, ptr %20) #17
  %185 = load ptr, ptr %14, align 8
  %186 = getelementptr inbounds nuw %struct.aiMaterialProperty, ptr %185, i32 0, i32 5
  %187 = load ptr, ptr %186, align 8
  %188 = getelementptr inbounds i8, ptr %187, i64 4
  store ptr %188, ptr %20, align 8
  call void @llvm.lifetime.start.p0(i64 4, ptr %21) #17
  store i32 0, ptr %21, align 4
  br label %189

189:                                              ; preds = %208, %184
  %190 = load ptr, ptr %20, align 8
  %191 = load ptr, ptr %12, align 8
  %192 = load i32, ptr %21, align 4
  %193 = zext i32 %192 to i64
  %194 = getelementptr inbounds nuw double, ptr %191, i64 %193
  %195 = call noundef ptr @_ZN6Assimp17fast_atoreal_moveId17DeadlyImportErrorEEPKcS3_RT_b(ptr noundef %190, ptr noundef nonnull align 8 dereferenceable(8) %194, i1 noundef zeroext true)
  store ptr %195, ptr %20, align 8
  %196 = load i32, ptr %21, align 4
  %197 = load i32, ptr %16, align 4
  %198 = sub i32 %197, 1
  %199 = icmp eq i32 %196, %198
  br i1 %199, label %200, label %201

200:                                              ; preds = %189
  store i32 11, ptr %15, align 4
  br label %211

201:                                              ; preds = %189
  %202 = load ptr, ptr %20, align 8
  %203 = load i8, ptr %202, align 1
  %204 = call noundef zeroext i1 @_ZN6Assimp7IsSpaceIcEEbT_(i8 noundef signext %203)
  br i1 %204, label %207, label %205

205:                                              ; preds = %201
  %206 = call noundef ptr @_ZN6Assimp13DefaultLogger3getEv()
  call void @_ZN6Assimp6Logger5errorIJRA18_KcRPS2_RA55_S2_EEEvDpOT_(ptr noundef nonnull align 8 dereferenceable(12) %206, ptr noundef nonnull align 1 dereferenceable(18) @.str, ptr noundef nonnull align 8 dereferenceable(8) %9, ptr noundef nonnull align 1 dereferenceable(55) @.str.1)
  store i32 -1, ptr %7, align 4
  store i32 1, ptr %15, align 4
  br label %211

207:                                              ; preds = %201
  br label %208

208:                                              ; preds = %207
  %209 = load i32, ptr %21, align 4
  %210 = add i32 %209, 1
  store i32 %210, ptr %21, align 4
  br label %189, !llvm.loop !14

211:                                              ; preds = %205, %200
  call void @llvm.lifetime.end.p0(i64 4, ptr %21) #17
  %212 = load i32, ptr %15, align 4
  switch i32 %212, label %220 [
    i32 11, label %213
  ]

213:                                              ; preds = %211
  %214 = load ptr, ptr %13, align 8
  %215 = icmp ne ptr %214, null
  br i1 %215, label %216, label %219

216:                                              ; preds = %213
  %217 = load i32, ptr %16, align 4
  %218 = load ptr, ptr %13, align 8
  store i32 %217, ptr %218, align 4
  br label %219

219:                                              ; preds = %216, %213
  store i32 0, ptr %15, align 4
  br label %220

220:                                              ; preds = %219, %211
  call void @llvm.lifetime.end.p0(i64 8, ptr %20) #17
  %221 = load i32, ptr %15, align 4
  switch i32 %221, label %226 [
    i32 0, label %222
  ]

222:                                              ; preds = %220
  br label %223

223:                                              ; preds = %222, %177
  br label %224

224:                                              ; preds = %223, %129
  br label %225

225:                                              ; preds = %224, %81
  store i32 0, ptr %7, align 4
  store i32 1, ptr %15, align 4
  br label %226

226:                                              ; preds = %225, %220
  call void @llvm.lifetime.end.p0(i64 4, ptr %16) #17
  br label %227

227:                                              ; preds = %226, %29
  call void @llvm.lifetime.end.p0(i64 8, ptr %14) #17
  %228 = load i32, ptr %7, align 4
  ret i32 %228
}