; Function Attrs: mustprogress uwtable
define hidden noundef range(i32 -1, 1) i32 @_Z24aiGetMaterialDoubleArrayPK10aiMaterialPKcjjPdPj(ptr noundef readonly captures(none) %0, ptr noundef %1, i32 noundef %2, i32 noundef %3, ptr noundef %4, ptr noundef captures(address_is_null) %5) local_unnamed_addr #3 {
  %7 = alloca ptr, align 8
  %8 = alloca ptr, align 8
  store ptr %1, ptr %7, align 8
  call void @llvm.lifetime.start.p0(i64 8, ptr nonnull %8) #24
  %9 = call i32 @aiGetMaterialProperty(ptr noundef %0, ptr noundef %1, i32 noundef %2, i32 noundef %3, ptr noundef nonnull %8)
  %10 = load ptr, ptr %8, align 8
  %11 = icmp eq ptr %10, null
  br i1 %11, label %.critedge61, label %12

12:                                               ; preds = %6
  %13 = getelementptr inbounds nuw i8, ptr %10, i64 1040
  %14 = load i32, ptr %13, align 8
  switch i32 %14, label %62 [
    i32 1, label %15
    i32 5, label %15
    i32 2, label %30
    i32 4, label %46
  ]

15:                                               ; preds = %12, %12
  %16 = getelementptr inbounds nuw i8, ptr %10, i64 1036
  %17 = load i32, ptr %16, align 4
  %18 = lshr i32 %17, 2
  %.not59 = icmp eq ptr %5, null
  br i1 %.not59, label %21, label %19

19:                                               ; preds = %15
  %20 = load i32, ptr %5, align 4
  %.sroa.speculated76 = tail call i32 @llvm.umin.i32(i32 %18, i32 %20)
  br label %21

21:                                               ; preds = %19, %15
  %.087 = phi i32 [ %18, %15 ], [ %.sroa.speculated76, %19 ]
  %.not103 = icmp eq i32 %.087, 0
  br i1 %.not103, label %._crit_edge97, label %.lr.ph96

.lr.ph96:                                         ; preds = %21
  %22 = getelementptr inbounds nuw i8, ptr %10, i64 1048
  %wide.trip.count113 = zext nneg i32 %.087 to i64
  br label %23

._crit_edge97:                                    ; preds = %23, %21
  br i1 %.not59, label %.critedge61, label %29

23:                                               ; preds = %.lr.ph96, %23
  %indvars.iv110 = phi i64 [ 0, %.lr.ph96 ], [ %indvars.iv.next111, %23 ]
  %24 = load ptr, ptr %22, align 8
  %25 = getelementptr inbounds nuw float, ptr %24, i64 %indvars.iv110
  %26 = load float, ptr %25, align 4
  %27 = fpext float %26 to double
  %28 = getelementptr inbounds nuw double, ptr %4, i64 %indvars.iv110
  store double %27, ptr %28, align 8
  %indvars.iv.next111 = add nuw nsw i64 %indvars.iv110, 1
  %exitcond114.not = icmp eq i64 %indvars.iv.next111, %wide.trip.count113
  br i1 %exitcond114.not, label %._crit_edge97, label %23, !llvm.loop !9

29:                                               ; preds = %._crit_edge97
  store i32 %.087, ptr %5, align 4
  br label %.critedge61

30:                                               ; preds = %12
  %31 = getelementptr inbounds nuw i8, ptr %10, i64 1036
  %32 = load i32, ptr %31, align 4
  %33 = lshr i32 %32, 3
  %.not58 = icmp eq ptr %5, null
  br i1 %.not58, label %36, label %34

34:                                               ; preds = %30
  %35 = load i32, ptr %5, align 4
  %.sroa.speculated73 = tail call i32 @llvm.umin.i32(i32 %33, i32 %35)
  br label %36

36:                                               ; preds = %34, %30
  %.1 = phi i32 [ %33, %30 ], [ %.sroa.speculated73, %34 ]
  %.not102 = icmp eq i32 %.1, 0
  br i1 %.not102, label %._crit_edge93, label %.lr.ph92

.lr.ph92:                                         ; preds = %36
  %37 = getelementptr inbounds nuw i8, ptr %10, i64 1048
  %wide.trip.count108 = zext nneg i32 %.1 to i64
  br label %38

._crit_edge93:                                    ; preds = %38, %36
  br i1 %.not58, label %.critedge61, label %45

38:                                               ; preds = %.lr.ph92, %38
  %indvars.iv105 = phi i64 [ 0, %.lr.ph92 ], [ %indvars.iv.next106, %38 ]
  %39 = load ptr, ptr %37, align 8
  %40 = getelementptr inbounds nuw double, ptr %39, i64 %indvars.iv105
  %41 = load double, ptr %40, align 8
  %42 = fptrunc double %41 to float
  %43 = fpext float %42 to double
  %44 = getelementptr inbounds nuw double, ptr %4, i64 %indvars.iv105
  store double %43, ptr %44, align 8
  %indvars.iv.next106 = add nuw nsw i64 %indvars.iv105, 1
  %exitcond109.not = icmp eq i64 %indvars.iv.next106, %wide.trip.count108
  br i1 %exitcond109.not, label %._crit_edge93, label %38, !llvm.loop !10

45:                                               ; preds = %._crit_edge93
  store i32 %.1, ptr %5, align 4
  br label %.critedge61

46:                                               ; preds = %12
  %47 = getelementptr inbounds nuw i8, ptr %10, i64 1036
  %48 = load i32, ptr %47, align 4
  %49 = lshr i32 %48, 2
  %.not57 = icmp eq ptr %5, null
  br i1 %.not57, label %52, label %50

50:                                               ; preds = %46
  %51 = load i32, ptr %5, align 4
  %.sroa.speculated = tail call i32 @llvm.umin.i32(i32 %49, i32 %51)
  br label %52

52:                                               ; preds = %50, %46
  %.288 = phi i32 [ %49, %46 ], [ %.sroa.speculated, %50 ]
  %.not101 = icmp eq i32 %.288, 0
  br i1 %.not101, label %._crit_edge, label %.lr.ph

.lr.ph:                                           ; preds = %52
  %53 = getelementptr inbounds nuw i8, ptr %10, i64 1048
  %wide.trip.count = zext nneg i32 %.288 to i64
  br label %54

._crit_edge:                                      ; preds = %54, %52
  br i1 %.not57, label %.critedge61, label %61

54:                                               ; preds = %.lr.ph, %54
  %indvars.iv = phi i64 [ 0, %.lr.ph ], [ %indvars.iv.next, %54 ]
  %55 = load ptr, ptr %53, align 8
  %56 = getelementptr inbounds nuw i32, ptr %55, i64 %indvars.iv
  %57 = load i32, ptr %56, align 4
  %58 = sitofp i32 %57 to float
  %59 = fpext float %58 to double
  %60 = getelementptr inbounds nuw double, ptr %4, i64 %indvars.iv
  store double %59, ptr %60, align 8
  %indvars.iv.next = add nuw nsw i64 %indvars.iv, 1
  %exitcond.not = icmp eq i64 %indvars.iv.next, %wide.trip.count
  br i1 %exitcond.not, label %._crit_edge, label %54, !llvm.loop !11

61:                                               ; preds = %._crit_edge
  store i32 %.288, ptr %5, align 4
  br label %.critedge61

62:                                               ; preds = %12
  %.not = icmp eq ptr %5, null
  br i1 %.not, label %65, label %63

63:                                               ; preds = %62
  %64 = load i32, ptr %5, align 4
  br label %65

65:                                               ; preds = %63, %62
  %.3 = phi i32 [ 0, %62 ], [ %64, %63 ]
  %66 = getelementptr inbounds nuw i8, ptr %10, i64 1048
  %67 = load ptr, ptr %66, align 8
  %68 = getelementptr inbounds nuw i8, ptr %67, i64 4
  %69 = tail call noundef ptr @_ZN6Assimp17fast_atoreal_moveId17DeadlyImportErrorEEPKcS3_RT_b(ptr noundef nonnull %68, ptr noundef nonnull align 8 dereferenceable(8) %4, i1 noundef zeroext true)
  %70 = add i32 %.3, -1
  %71 = icmp eq i32 %70, 0
  br i1 %71, label %.critedge, label %.lr.ph100.preheader

.lr.ph100.preheader:                              ; preds = %65
  %72 = zext i32 %70 to i64
  br label %.lr.ph100

.lr.ph100:                                        ; preds = %.lr.ph100.preheader, %77
  %indvars.iv115 = phi i64 [ 0, %.lr.ph100.preheader ], [ %indvars.iv.next116, %77 ]
  %73 = phi ptr [ %69, %.lr.ph100.preheader ], [ %79, %77 ]
  %74 = load i8, ptr %73, align 1
  switch i8 %74, label %75 [
    i8 32, label %77
    i8 9, label %77
  ]

75:                                               ; preds = %.lr.ph100
  %76 = tail call noundef ptr @_ZN6Assimp13DefaultLogger3getEv()
  call void @_ZN6Assimp6Logger5errorIJRA18_KcRPS2_RA55_S2_EEEvDpOT_(ptr noundef nonnull align 8 dereferenceable(12) %76, ptr noundef nonnull align 1 dereferenceable(18) @.str, ptr noundef nonnull align 8 dereferenceable(8) %7, ptr noundef nonnull align 1 dereferenceable(55) @.str.1)
  br label %.critedge61

77:                                               ; preds = %.lr.ph100, %.lr.ph100
  %indvars.iv.next116 = add nuw nsw i64 %indvars.iv115, 1
  %78 = getelementptr inbounds nuw double, ptr %4, i64 %indvars.iv.next116
  %79 = tail call noundef ptr @_ZN6Assimp17fast_atoreal_moveId17DeadlyImportErrorEEPKcS3_RT_b(ptr noundef nonnull %73, ptr noundef nonnull align 8 dereferenceable(8) %78, i1 noundef zeroext true)
  %80 = icmp eq i64 %indvars.iv.next116, %72
  br i1 %80, label %.critedge, label %.lr.ph100, !llvm.loop !12

.critedge:                                        ; preds = %77, %65
  br i1 %.not, label %.critedge61, label %81

81:                                               ; preds = %.critedge
  store i32 %.3, ptr %5, align 4
  br label %.critedge61

.critedge61:                                      ; preds = %75, %81, %.critedge, %45, %._crit_edge93, %._crit_edge, %61, %._crit_edge97, %29, %6
  %.048 = phi i32 [ -1, %6 ], [ -1, %75 ], [ 0, %81 ], [ 0, %.critedge ], [ 0, %45 ], [ 0, %._crit_edge93 ], [ 0, %._crit_edge ], [ 0, %61 ], [ 0, %._crit_edge97 ], [ 0, %29 ]
  call void @llvm.lifetime.end.p0(i64 8, ptr nonnull %8) #24
  ret i32 %.048
}